target datalayout = "e-m:e-p270:32:32-p271:32:32-p272:64:64-i64:64-i128:128-f80:128-n8:16:32:64-S128"
target triple = "x86_64-pc-linux-gnu"

%struct.ForEachState = type { ptr, i32 }
%struct.List = type { i32, i32, i32, ptr, [0 x %union.ListCell] }
%union.ListCell = type { ptr }
%struct.DefElem = type { i32, ptr, ptr, ptr, i32, i32 }

@.str.1 = private unnamed_addr constant [14 x i8] c"foreigncmds.c\00", align 1
@.str.34 = private unnamed_addr constant [8 x i8] c"handler\00", align 1
@.str.35 = private unnamed_addr constant [10 x i8] c"validator\00", align 1
@.str.36 = private unnamed_addr constant [27 x i8] c"option \22%s\22 not recognized\00", align 1
@__func__.parse_func_options = private unnamed_addr constant [19 x i8] c"parse_func_options\00", align 1
@.str.37 = private unnamed_addr constant [32 x i8] c"function %s must return type %s\00", align 1
@.str.38 = private unnamed_addr constant [12 x i8] c"fdw_handler\00", align 1
@__func__.lookup_fdw_handler_func = private unnamed_addr constant [24 x i8] c"lookup_fdw_handler_func\00", align 1

; Function Attrs: nounwind uwtable
define internal i32 @lookup_fdw_validator_func(ptr noundef %0) #0 {
  %2 = alloca i32, align 4
  %3 = alloca ptr, align 8
  %4 = alloca [2 x i32], align 4
  %5 = alloca i32, align 4
  store ptr %0, ptr %3, align 8
  call void @llvm.lifetime.start.p0(i64 8, ptr %4) #9
  %6 = load ptr, ptr %3, align 8
  %7 = icmp eq ptr %6, null
  br i1 %7, label %13, label %8

8:                                                ; preds = %1
  %9 = load ptr, ptr %3, align 8
  %10 = getelementptr inbounds nuw %struct.DefElem, ptr %9, i32 0, i32 3
  %11 = load ptr, ptr %10, align 8
  %12 = icmp eq ptr %11, null
  br i1 %12, label %13, label %14

13:                                               ; preds = %8, %1
  store i32 0, ptr %2, align 4
  store i32 1, ptr %5, align 4
  br label %22

14:                                               ; preds = %8
  %15 = getelementptr inbounds [2 x i32], ptr %4, i64 0, i64 0
  store i32 1009, ptr %15, align 4
  %16 = getelementptr inbounds [2 x i32], ptr %4, i64 0, i64 1
  store i32 26, ptr %16, align 4
  %17 = load ptr, ptr %3, align 8
  %18 = getelementptr inbounds nuw %struct.DefElem, ptr %17, i32 0, i32 3
  %19 = load ptr, ptr %18, align 8
  %20 = getelementptr inbounds [2 x i32], ptr %4, i64 0, i64 0
  %21 = call i32 @LookupFuncName(ptr noundef %19, i32 noundef 2, ptr noundef %20, i1 noundef zeroext false)
  store i32 %21, ptr %2, align 4
  store i32 1, ptr %5, align 4
  br label %22

22:                                               ; preds = %14, %13
  call void @llvm.lifetime.end.p0(i64 8, ptr %4) #9
  %23 = load i32, ptr %2, align 4
  ret i32 %23
}

; Function Attrs: nounwind uwtable
define internal i32 @lookup_fdw_handler_func(ptr noundef %0) #0 {
  %2 = alloca i32, align 4
  %3 = alloca ptr, align 8
  %4 = alloca i32, align 4
  %5 = alloca i32, align 4
  store ptr %0, ptr %3, align 8
  call void @llvm.lifetime.start.p0(i64 4, ptr %4) #9
  %6 = load ptr, ptr %3, align 8
  %7 = icmp eq ptr %6, null
  br i1 %7, label %13, label %8

8:                                                ; preds = %1
  %9 = load ptr, ptr %3, align 8
  %10 = getelementptr inbounds nuw %struct.DefElem, ptr %9, i32 0, i32 3
  %11 = load ptr, ptr %10, align 8
  %12 = icmp eq ptr %11, null
  br i1 %12, label %13, label %14

13:                                               ; preds = %8, %1
  store i32 0, ptr %2, align 4
  store i32 1, ptr %5, align 4
  br label %40

14:                                               ; preds = %8
  %15 = load ptr, ptr %3, align 8
  %16 = getelementptr inbounds nuw %struct.DefElem, ptr %15, i32 0, i32 3
  %17 = load ptr, ptr %16, align 8
  %18 = call i32 @LookupFuncName(ptr noundef %17, i32 noundef 0, ptr noundef null, i1 noundef zeroext false)
  store i32 %18, ptr %4, align 4
  %19 = load i32, ptr %4, align 4
  %20 = call i32 @get_func_rettype(i32 noundef %19)
  %21 = icmp ne i32 %20, 3115
  br i1 %21, label %22, label %38

22:                                               ; preds = %14
  br label %23

23:                                               ; preds = %22
  br i1 true, label %24, label %26

24:                                               ; preds = %23
  %25 = call zeroext i1 @errstart_cold(i32 noundef 21, ptr noundef null) #11
  br i1 %25, label %28, label %35

26:                                               ; preds = %23
  %27 = call zeroext i1 @errstart(i32 noundef 21, ptr noundef null)
  br i1 %27, label %28, label %35

28:                                               ; preds = %26, %24
  %29 = call i32 @errcode(i32 noundef 151027844)
  %30 = load ptr, ptr %3, align 8
  %31 = getelementptr inbounds nuw %struct.DefElem, ptr %30, i32 0, i32 3
  %32 = load ptr, ptr %31, align 8
  %33 = call ptr @NameListToString(ptr noundef %32)
  %34 = call i32 (ptr, ...) @errmsg(ptr noundef @.str.37, ptr noundef %33, ptr noundef @.str.38)
  call void @errfinish(ptr noundef @.str.1, i32 noundef 490, ptr noundef @__func__.lookup_fdw_handler_func)
  br label %35

35:                                               ; preds = %28, %26, %24
  unreachable

36:                                               ; No predecessors!
  br label %37

37:                                               ; preds = %36
  br label %38

38:                                               ; preds = %37, %14
  %39 = load i32, ptr %4, align 4
  store i32 %39, ptr %2, align 4
  store i32 1, ptr %5, align 4
  br label %40

40:                                               ; preds = %38, %13
  call void @llvm.lifetime.end.p0(i64 4, ptr %4) #9
  %41 = load i32, ptr %2, align 4
  ret i32 %41
}

; Function Attrs: nounwind uwtable
define internal void @parse_func_options(ptr noundef %0, ptr noundef %1, ptr noundef %2, ptr noundef %3, ptr noundef %4, ptr noundef %5) #0 {
  %7 = alloca ptr, align 8
  %8 = alloca ptr, align 8
  %9 = alloca ptr, align 8
  %10 = alloca ptr, align 8
  %11 = alloca ptr, align 8
  %12 = alloca ptr, align 8
  %13 = alloca ptr, align 8
  %14 = alloca %struct.ForEachState, align 8
  %15 = alloca ptr, align 8
  store ptr %0, ptr %7, align 8
  store ptr %1, ptr %8, align 8
  store ptr %2, ptr %9, align 8
  store ptr %3, ptr %10, align 8
  store ptr %4, ptr %11, align 8
  store ptr %5, ptr %12, align 8
  call void @llvm.lifetime.start.p0(i64 8, ptr %13) #9
  %16 = load ptr, ptr %9, align 8
  store i8 0, ptr %16, align 1
  %17 = load ptr, ptr %11, align 8
  store i8 0, ptr %17, align 1
  %18 = load ptr, ptr %10, align 8
  store i32 0, ptr %18, align 4
  %19 = load ptr, ptr %12, align 8
  store i32 0, ptr %19, align 4
  call void @llvm.lifetime.start.p0(i64 16, ptr %14) #9
  %20 = getelementptr inbounds nuw %struct.ForEachState, ptr %14, i32 0, i32 0
  %21 = load ptr, ptr %8, align 8
  store ptr %21, ptr %20, align 8
  %22 = getelementptr inbounds nuw %struct.ForEachState, ptr %14, i32 0, i32 1
  store i32 0, ptr %22, align 8
  %23 = getelementptr i8, ptr %14, i64 12
  call void @llvm.memset.p0.i64(ptr align 4 %23, i8 0, i64 4, i1 false)
  br label %24

24:                                               ; preds = %104, %6
  %25 = getelementptr inbounds nuw %struct.ForEachState, ptr %14, i32 0, i32 0
  %26 = load ptr, ptr %25, align 8
  %27 = icmp ne ptr %26, null
  br i1 %27, label %28, label %45

28:                                               ; preds = %24
  %29 = getelementptr inbounds nuw %struct.ForEachState, ptr %14, i32 0, i32 1
  %30 = load i32, ptr %29, align 8
  %31 = getelementptr inbounds nuw %struct.ForEachState, ptr %14, i32 0, i32 0
  %32 = load ptr, ptr %31, align 8
  %33 = getelementptr inbounds nuw %struct.List, ptr %32, i32 0, i32 1
  %34 = load i32, ptr %33, align 4
  %35 = icmp slt i32 %30, %34
  br i1 %35, label %36, label %45

36:                                               ; preds = %28
  %37 = getelementptr inbounds nuw %struct.ForEachState, ptr %14, i32 0, i32 0
  %38 = load ptr, ptr %37, align 8
  %39 = getelementptr inbounds nuw %struct.List, ptr %38, i32 0, i32 3
  %40 = load ptr, ptr %39, align 8
  %41 = getelementptr inbounds nuw %struct.ForEachState, ptr %14, i32 0, i32 1
  %42 = load i32, ptr %41, align 8
  %43 = sext i32 %42 to i64
  %44 = getelementptr inbounds %union.ListCell, ptr %40, i64 %43
  store ptr %44, ptr %13, align 8
  br label %46

45:                                               ; preds = %28, %24
  store ptr null, ptr %13, align 8
  br label %46

46:                                               ; preds = %45, %36
  %47 = phi i32 [ 1, %36 ], [ 0, %45 ]
  %48 = icmp ne i32 %47, 0
  br i1 %48, label %50, label %49

49:                                               ; preds = %46
  call void @llvm.lifetime.end.p0(i64 16, ptr %14) #9
  br label %108

50:                                               ; preds = %46
  call void @llvm.lifetime.start.p0(i64 8, ptr %15) #9
  %51 = load ptr, ptr %13, align 8
  %52 = load ptr, ptr %51, align 8
  store ptr %52, ptr %15, align 8
  %53 = load ptr, ptr %15, align 8
  %54 = getelementptr inbounds nuw %struct.DefElem, ptr %53, i32 0, i32 2
  %55 = load ptr, ptr %54, align 8
  %56 = call i32 @strcmp(ptr noundef %55, ptr noundef @.str.34) #10
  %57 = icmp eq i32 %56, 0
  br i1 %57, label %58, label %70

58:                                               ; preds = %50
  %59 = load ptr, ptr %9, align 8
  %60 = load i8, ptr %59, align 1, !range !8, !noundef !9
  %61 = trunc i8 %60 to i1
  br i1 %61, label %62, label %65

62:                                               ; preds = %58
  %63 = load ptr, ptr %15, align 8
  %64 = load ptr, ptr %7, align 8
  call void @errorConflictingDefElem(ptr noundef %63, ptr noundef %64) #12
  unreachable

65:                                               ; preds = %58
  %66 = load ptr, ptr %9, align 8
  store i8 1, ptr %66, align 1
  %67 = load ptr, ptr %15, align 8
  %68 = call i32 @lookup_fdw_handler_func(ptr noundef %67)
  %69 = load ptr, ptr %10, align 8
  store i32 %68, ptr %69, align 4
  br label %103

70:                                               ; preds = %50
  %71 = load ptr, ptr %15, align 8
  %72 = getelementptr inbounds nuw %struct.DefElem, ptr %71, i32 0, i32 2
  %73 = load ptr, ptr %72, align 8
  %74 = call i32 @strcmp(ptr noundef %73, ptr noundef @.str.35) #10
  %75 = icmp eq i32 %74, 0
  br i1 %75, label %76, label %88

76:                                               ; preds = %70
  %77 = load ptr, ptr %11, align 8
  %78 = load i8, ptr %77, align 1, !range !8, !noundef !9
  %79 = trunc i8 %78 to i1
  br i1 %79, label %80, label %83

80:                                               ; preds = %76
  %81 = load ptr, ptr %15, align 8
  %82 = load ptr, ptr %7, align 8
  call void @errorConflictingDefElem(ptr noundef %81, ptr noundef %82) #12
  unreachable

83:                                               ; preds = %76
  %84 = load ptr, ptr %11, align 8
  store i8 1, ptr %84, align 1
  %85 = load ptr, ptr %15, align 8
  %86 = call i32 @lookup_fdw_validator_func(ptr noundef %85)
  %87 = load ptr, ptr %12, align 8
  store i32 %86, ptr %87, align 4
  br label %102

88:                                               ; preds = %70
  br label %89

89:                                               ; preds = %88
  br i1 true, label %90, label %92

90:                                               ; preds = %89
  %91 = call zeroext i1 @errstart_cold(i32 noundef 21, ptr noundef null) #11
  br i1 %91, label %94, label %99

92:                                               ; preds = %89
  %93 = call zeroext i1 @errstart(i32 noundef 21, ptr noundef null)
  br i1 %93, label %94, label %99

94:                                               ; preds = %92, %90
  %95 = load ptr, ptr %15, align 8
  %96 = getelementptr inbounds nuw %struct.DefElem, ptr %95, i32 0, i32 2
  %97 = load ptr, ptr %96, align 8
  %98 = call i32 (ptr, ...) @errmsg_internal(ptr noundef @.str.36, ptr noundef %97)
  call void @errfinish(ptr noundef @.str.1, i32 noundef 550, ptr noundef @__func__.parse_func_options)
  br label %99

99:                                               ; preds = %94, %92, %90
  unreachable

100:                                              ; No predecessors!
  br label %101

101:                                              ; preds = %100
  br label %102

102:                                              ; preds = %101, %83
  br label %103

103:                                              ; preds = %102, %65
  call void @llvm.lifetime.end.p0(i64 8, ptr %15) #9
  br label %104

104:                                              ; preds = %103
  %105 = getelementptr inbounds nuw %struct.ForEachState, ptr %14, i32 0, i32 1
  %106 = load i32, ptr %105, align 8
  %107 = add i32 %106, 1
  store i32 %107, ptr %105, align 8
  br label %24, !llvm.loop !10

108:                                              ; preds = %49
  call void @llvm.lifetime.end.p0(i64 8, ptr %13) #9
  ret void
}