; Function Attrs: nounwind uwtable
define internal fastcc void @parse_func_options(ptr noundef %0, ptr noundef readonly captures(address_is_null) %1, ptr noundef nonnull captures(none) initializes((0, 1)) %2, ptr noundef nonnull writeonly captures(none) initializes((0, 4)) %3, ptr noundef nonnull captures(none) initializes((0, 1)) %4, ptr noundef nonnull writeonly captures(none) initializes((0, 4)) %5) unnamed_addr #0 {
  %7 = alloca [2 x i32], align 4
  store i8 0, ptr %2, align 1
  store i8 0, ptr %4, align 1
  store i32 0, ptr %3, align 4
  store i32 0, ptr %5, align 4
  %.not = icmp eq ptr %1, null
  br i1 %.not, label %._crit_edge, label %.lr.ph

.lr.ph:                                           ; preds = %6
  %8 = getelementptr inbounds nuw i8, ptr %1, i64 4
  %9 = getelementptr inbounds nuw i8, ptr %1, i64 16
  %10 = getelementptr inbounds nuw i8, ptr %7, i64 4
  %11 = load i32, ptr %8, align 4
  %12 = icmp sgt i32 %11, 0
  br i1 %12, label %.lr.ph60, label %._crit_edge

._crit_edge:                                      ; preds = %56, %.lr.ph, %6
  ret void

.lr.ph60:                                         ; preds = %.lr.ph, %56
  %indvars.iv59 = phi i64 [ %indvars.iv.next, %56 ], [ 0, %.lr.ph ]
  %13 = load ptr, ptr %9, align 8
  %14 = getelementptr inbounds nuw %union.ListCell, ptr %13, i64 %indvars.iv59
  %15 = load ptr, ptr %14, align 8
  %16 = getelementptr inbounds nuw i8, ptr %15, i64 16
  %17 = load ptr, ptr %16, align 8
  %18 = call i32 @strcmp(ptr noundef nonnull dereferenceable(1) %17, ptr noundef nonnull dereferenceable(8) @.str.34) #10
  %19 = icmp eq i32 %18, 0
  br i1 %19, label %20, label %38

20:                                               ; preds = %.lr.ph60
  %21 = load i8, ptr %2, align 1, !range !4, !noundef !5
  %22 = trunc nuw i8 %21 to i1
  br i1 %22, label %23, label %24

23:                                               ; preds = %20
  call void @errorConflictingDefElem(ptr noundef nonnull %15, ptr noundef %0) #12
  unreachable

24:                                               ; preds = %20
  store i8 1, ptr %2, align 1
  %25 = getelementptr inbounds nuw i8, ptr %15, i64 24
  %26 = load ptr, ptr %25, align 8
  %27 = icmp eq ptr %26, null
  br i1 %27, label %lookup_fdw_handler_func.exit, label %28

28:                                               ; preds = %24
  %29 = call i32 @LookupFuncName(ptr noundef nonnull %26, i32 noundef 0, ptr noundef null, i1 noundef zeroext false) #9
  %30 = call i32 @get_func_rettype(i32 noundef %29) #9
  %.not.i = icmp eq i32 %30, 3115
  br i1 %.not.i, label %lookup_fdw_handler_func.exit, label %31

31:                                               ; preds = %28
  %32 = getelementptr inbounds nuw i8, ptr %15, i64 24
  %33 = call zeroext i1 @errstart_cold(i32 noundef 21, ptr noundef null) #11
  call void @llvm.assume(i1 %33)
  %34 = call i32 @errcode(i32 noundef 151027844) #9
  %35 = load ptr, ptr %32, align 8
  %36 = call ptr @NameListToString(ptr noundef %35) #9
  %37 = call i32 (ptr, ...) @errmsg(ptr noundef nonnull @.str.37, ptr noundef %36, ptr noundef nonnull @.str.38) #9
  call void @errfinish(ptr noundef nonnull @.str.1, i32 noundef 490, ptr noundef nonnull @__func__.lookup_fdw_handler_func) #9
  unreachable

lookup_fdw_handler_func.exit:                     ; preds = %24, %28
  %.0.i = phi i32 [ 0, %24 ], [ %29, %28 ]
  store i32 %.0.i, ptr %3, align 4
  br label %56

38:                                               ; preds = %.lr.ph60
  %39 = call i32 @strcmp(ptr noundef nonnull dereferenceable(1) %17, ptr noundef nonnull dereferenceable(10) @.str.35) #10
  %40 = icmp eq i32 %39, 0
  br i1 %40, label %41, label %51

41:                                               ; preds = %38
  %42 = load i8, ptr %4, align 1, !range !4, !noundef !5
  %43 = trunc nuw i8 %42 to i1
  br i1 %43, label %44, label %45

44:                                               ; preds = %41
  call void @errorConflictingDefElem(ptr noundef nonnull %15, ptr noundef %0) #12
  unreachable

45:                                               ; preds = %41
  store i8 1, ptr %4, align 1
  call void @llvm.lifetime.start.p0(i64 8, ptr nonnull %7) #9
  %46 = getelementptr inbounds nuw i8, ptr %15, i64 24
  %47 = load ptr, ptr %46, align 8
  %48 = icmp eq ptr %47, null
  br i1 %48, label %lookup_fdw_validator_func.exit, label %49

49:                                               ; preds = %45
  store i32 1009, ptr %7, align 4
  store i32 26, ptr %10, align 4
  %50 = call i32 @LookupFuncName(ptr noundef nonnull %47, i32 noundef 2, ptr noundef nonnull %7, i1 noundef zeroext false) #9
  br label %lookup_fdw_validator_func.exit

lookup_fdw_validator_func.exit:                   ; preds = %45, %49
  %.0.i27 = phi i32 [ %50, %49 ], [ 0, %45 ]
  call void @llvm.lifetime.end.p0(i64 8, ptr nonnull %7) #9
  store i32 %.0.i27, ptr %5, align 4
  br label %56

51:                                               ; preds = %38
  %52 = getelementptr inbounds nuw i8, ptr %15, i64 16
  %53 = call zeroext i1 @errstart_cold(i32 noundef 21, ptr noundef null) #11
  call void @llvm.assume(i1 %53)
  %54 = load ptr, ptr %52, align 8
  %55 = call i32 (ptr, ...) @errmsg_internal(ptr noundef nonnull @.str.36, ptr noundef %54) #9
  call void @errfinish(ptr noundef nonnull @.str.1, i32 noundef 550, ptr noundef nonnull @__func__.parse_func_options) #9
  unreachable

56:                                               ; preds = %lookup_fdw_validator_func.exit, %lookup_fdw_handler_func.exit
  %indvars.iv.next = add nuw nsw i64 %indvars.iv59, 1
  %57 = load i32, ptr %8, align 4
  %58 = sext i32 %57 to i64
  %59 = icmp slt i64 %indvars.iv.next, %58
  br i1 %59, label %.lr.ph60, label %._crit_edge
}